(lp1
(lp2
(S'AGAAAGCTGA'
S'AGAAAGCTGA'
I32038153
I32005418
(lp3
I4
atp4
a(S'AGCTGACTCT'
S'AGCTGACTCT'
I32038157
I32005422
(lp5
I4
atp6
a(S'GACTCTGGAT'
S'GACTCTGGAT'
I32038161
I32005426
(lp7
I4
atp8
a(S'CTGGATGCAG'
S'CTGGATGCAG'
I32038165
I32005430
(lp9
I4
atp10
a(S'TTCTTGATG'
S'TTCTCGATG'
I32038208
I32005473
(lp11
I4
atp12
a(S'TGATCAATTTTTTTGAAA'
S'TGATTAATTTTTTTTGAAA'
I32038219
I32005484
(lp13
I4
aI14
atp14
a(S'TGGGCGGGT'
S'TGGGTGGGT'
I32038292
I32005558
(lp15
I4
atp16
a(S'GGGAGGGTACCT'
S'GGGAAGGCACCT'
I32038305
I32005571
(lp17
I4
aI7
atp18
a(S'CTGAAGGTG'
S'CTGAGGGTG'
I32038315
I32005581
(lp19
I4
atp20
a(S'GTCTCGCCA'
S'GTCTTGCCA'
I32038414
I32005680
(lp21
I4
atp22
a(S'CTCCCGCCT'
S'CTCCTGCCT'
I32038509
I32005775
(lp23
I4
atp24
a(S'TTAAAAAAATT'
S'TTAAACAAATT'
I32038838
I32006104
(lp25
I5
atp26
a(S'TTTTAAGAG'
S'TTTTGTTAGAG'
I32038852
I32006119
(lp27
I4
aI5
aI6
atp28
a(S'TGGGTTCTT'
S'TGGGGTCTT'
I32038862
I32006131
(lp29
I4
atp30
a(S'TATGCTGCC'
S'TATGTTGCC'
I32038873
I32006142
(lp31
I4
atp32
a(S'TCTTAAATT'
S'TCTTGAATT'
I32038890
I32006159
(lp33
I4
atp34
a(S'TCCTAGTCT'
S'TCCTGGTCT'
I32038898
I32006167
(lp35
I4
atp36
a(S'TCAAATGAT'
S'TCAAGTGAT'
I32038906
I32006175
(lp37
I4
atp38
a(S'CCTCAGCCT'
S'CCTCGGCCT'
I32038922
I32006191
(lp39
I4
atp40
a(S'AGTGTGAGC'
S'AGTGGGAGC'
I32038933
I32006202
(lp41
I4
atp42
a(S'CCTTTGGGG'
S'CCTTCGGGG'
I32038944
I32006213
(lp43
I4
atp44
a(S'GGGCATCCC'
S'GGGCTTCCC'
I32038950
I32006220
(lp45
I4
atp46
a(S'GGTCCCTGG'
S'GGTCACTGG'
I32038966
I32006239
(lp47
I4
atp48
a(S'TCTTGGGGGGGCATA'
S'TCTTGGGGGGCATA'
I32038979
I32006252
(lp49
I10
atp50
a(S'ATCTGGTGGGGAGAAAGC'
S'ATCTTCAGGAGAAGAAGC'
I32038993
I32006265
(lp51
I4
aI5
aI6
aI7
atp52
a(S'CAGGGGTTGGGGAG'
S'CAGGTGTTGAGGAG'
I32039010
I32006282
(lp53
I4
aI9
atp54
a(S'AGGCCGAAG'
S'AGGCAGAAG'
I32039022
I32006294
(lp55
I4
atp56
a(S'CCTCAGCTGCCTT'
S'CCTCGGCTTCCTT'
I32039041
I32006313
(lp57
I4
aI8
atp58
a(S'CCTTCATCAG'
S'CCTTGGTCAG'
I32039050
I32006322
(lp59
I4
aI5
atp60
a(S'CCCACCTCC'
S'CCCAGCTCC'
I32039076
I32006348
(lp61
I4
atp62
a(S'TCTAGGAAC'
S'TCTAAGAAC'
I32039104
I32006376
(lp63
I4
atp64
a(S'TGTCCTTGG'
S'TGTCGTTGG'
I32039123
I32006395
(lp65
I4
atp66
a(S'TTGGGAGACTACTCCCTGC'
S'TTGGTCTCTGC'
I32039128
I32006400
(lp67
I4
aI5
aI6
aI7
atp68
a(S'ATCATCTGT'
S'ATCAACTGT'
I32039421
I32006685
(lp69
I4
atp70
a(S'CTCCCTCCT'
S'CTCCATCCT'
I32039526
I32006790
(lp71
I4
atp72
a(S'CTTTTCTGG'
S'CTTTCCTGG'
I32039533
I32006797
(lp73
I4
atp74
a(S'AGGACGACA'
S'AGGAGGACA'
I32039543
I32006807
(lp75
I4
atp76
a(S'GGGATCACATCGTGGAG'
S'GGGACCACAACGAGGAG'
I32039797
I32007061
(lp77
I4
aI9
aI12
atp78
a(S'GAGATGCAG'
S'GAGAAGCAG'
I32039811
I32007075
(lp79
I4
atp80
a(S'CTGTACGTGG'
S'CTGTGTGTGG'
I32039842
I32007106
(lp81
I4
aI5
atp82
a(S'GCCTCGTGG'
S'GCCTGGTGG'
I32040008
I32007272
(lp83
I4
atp84
a(S'GCACGTGCA'
S'GCACTTGCA'
I32040105
I32007369
(lp85
I4
atp86
a(S'GTGGTTTTTTTGCTT'
S'GTGGTTTTTTTTGCTT'
I32040178
I32007442
(lp87
I3
aI4
aI10
aI11
atp88
a(S'CCTGGGGAC'
S'CCTGCGGAC'
I32040211
I32007476
(lp89
I4
atp90
a(S'ACTGCAGGA'
S'ACTGTAGGA'
I32040416
I32007681
(lp91
I4
atp92
a(S'CCTGCGGCC'
S'CCTGTGGCC'
I32040530
I32007795
(lp93
I4
atp94
a(S'TGCCGTGAA'
S'TGCCATGAA'
I32040792
I32008057
(lp95
I4
atp96
a(S'GCCCGGGCC'
S'GCCCAGGCC'
I32041114
I32008379
(lp97
I4
atp98
a(S'CAGAGCCAG'
S'CAGAACCAG'
I32041122
I32008387
(lp99
I4
atp100
a(S'GCTCTTCCC'
S'GCTCCTCCC'
I32041497
I32008762
(lp101
I4
atp102
a(S'AGGTAGCTC'
S'AGGTGGCTC'
I32041519
I32008784
(lp103
I4
atp104
a(S'CCTCCGCTGCAG'
S'CCTCTGCCGCAG'
I32041569
I32008834
(lp105
I4
aI7
atp106
a(S'TAATTCTGA'
S'TAATCCTGA'
I32041593
I32008858
(lp107
I4
atp108
a(S'CTGGCCCTT'
S'CTGGTCCTT'
I32041603
I32008868
(lp109
I4
atp110
a(S'TTGAGGTTGG'
S'TTGAGGTTGG'
I32041801
I32009066
(lp111
I4
atp112
a(S'GGTTGGCGTA'
S'GGTTGGCGTA'
I32041805
I32009070
(lp113
I4
atp114
a(S'GGCGTAGTGG'
S'GGCGTAGTGG'
I32041809
I32009074
(lp115
I4
atp116
a(S'TAGTGGCAGT'
S'TAGTGGCAGT'
I32041813
I32009078
(lp117
I4
atp118
aa(lp119
(I1
I0
S'TGATCAACTTTTTTGAAA'
tp120
a(I7
I1
S'TTAAACAATTT'
tp121
a(I17
I1
S'GGGCTTCTC'
tp122
a(I25
I0
S'CCCACTTCC'
tp123
a(I27
I0
S'TTTCCTTGG'
tp124
a(I45
I1
S'GCTCCTCCC'
tp125
aaI4
aI1
a(dp126
S'xlabel'
p127
S'CYP21A1P <----            ----> CYP21A2 '
p128
sS'exons'
p129
(lp130
(I32038315
I32038624
tp131
a(I32038721
I32038811
tp132
a(I32039093
I32039248
tp133
a(I32039355
I32039457
tp134
a(I32039545
I32039647
tp135
a(I32039748
I32039835
tp136
a(I32040004
I32040205
tp137
a(I32040405
I32040584
tp138
a(I32040667
I32040771
tp139
a(I32040868
I32041670
tp140
asa.