(lp1
(lp2
(S'AAACAAACAGTA'
S'AAAAAGCACTCAGTA'
I29429
I9903
(ltp3
a(S'AGAGGGATG'
S'AGAAGGATG'
I29454
I9931
(ltp4
a(S'AGGCAGAGG'
S'AGGGAGAGG'
I29475
I9952
(ltp5
a(S'AAAAGCTGT'
S'AAATGCTGT'
I29504
I9981
(ltp6
a(S'TCTGTATTA'
S'TCTCTATTA'
I29565
I10042
(ltp7
a(S'CTTGAACTTTTT'
S'CTTTAACTTTTTT'
I29688
I10165
(ltp8
a(S'TTTATGGGT'
S'TTTGTGGGT'
I29867
I10345
(ltp9
a(S'GAGTGTTTC'
S'GAGGGTTTC'
I30076
I10559
(ltp10
a(S'CGCTGTGTT'
S'CGCCGTGTT'
I30084
I10567
(ltp11
a(S'GGCCGGTCTCA'
S'GGCTGATCTCA'
I30098
I10581
(ltp12
a(S'CTCGGGCTCCT'
S'CTCAGCCTCCT'
I30137
I10620
(ltp13
a(S'CTACTTTAA'
S'CTATTTTAA'
I30193
I10676
(ltp14
a(S'TGAGTAGTGTTG'
S'TGAATTATGTTG'
I30270
I10753
(ltp15
a(S'ATTTGTGTT'
S'ATTCGTGTT'
I30284
I10767
(ltp16
a(S'CTTTGATTT'
S'CTTCGATTT'
I30479
I10962
(ltp17
a(S'CCTGGCTAA'
S'CCTCGCTAA'
I30618
I11101
(ltp18
a(S'AATCAGAAC'
S'AATTAGAAC'
I30826
I11311
(ltp19
a(S'GACCAGTTTTT'
S'GACTGTTTTTT'
I30884
I11369
(ltp20
a(S'AAAAGTTCCTCCAA'
S'AAAAGGTTCCCCCAA'
I30915
I11400
(ltp21
a(S'GTGAGTTTCCT'
S'GTGACTGTCCT'
I30939
I11425
(ltp22
a(S'TCAGGTGTT'
S'TCAGATGTT'
I30955
I11441
(ltp23
a(S'GAGCGCAGT'
S'GAGCACAGT'
I31011
I11504
(ltp24
a(S'GTCTGTATC'
S'GTCTCTATC'
I31180
I11672
(ltp25
a(S'AAAAACTGG'
S'AAAAGCTGG'
I31387
I11879
(ltp26
a(S'TCTGCGTTC'
S'TCTGTGTTC'
I31678
I12170
(ltp27
a(S'GGAACTTGC'
S'GGAAGTTGC'
I31960
I12452
(ltp28
a(S'TGATGTCCA'
S'TGATTTCCA'
I32591
I13082
(ltp29
a(S'GCTGAGGAG'
S'GCTGGGGAG'
I33834
I14323
(ltp30
a(S'GCCTGGTG'
S'GCCTGGGTG'
I34697
I15186
(ltp31
a(S'AATGAACC'
S'AATGAAACC'
I35788
I16278
(ltp32
aa(lp33
aI0
aI1
a(dp34
S'xlabel'
p35
(dp36
S'P'
S'PMS2CL'
p37
sS'G'
S'PMS2'
p38
ssS'exons'
p39
(lp40
sa.